; Function Attrs: mustprogress uwtable
define void @_ZN3net11QuicSession14ActivateStreamEPNS_18ReliableQuicStreamE(ptr noundef nonnull align 8 dereferenceable(2044) %0, ptr noundef %1) unnamed_addr #0 align 2 {
  %3 = alloca i32, align 4
  %4 = getelementptr inbounds nuw i8, ptr %0, i64 768
  call void @llvm.lifetime.start.p0(i64 4, ptr nonnull %3) #25
  %5 = getelementptr inbounds nuw i8, ptr %1, i64 216
  %6 = load i32, ptr %5, align 8, !tbaa !377
  store i32 %6, ptr %3, align 4, !tbaa !230
  %7 = call noundef nonnull align 8 dereferenceable(8) ptr @_ZN4base8SmallMapISt13unordered_mapIjPN3net18ReliableQuicStreamESt4hashIjESt8equal_toIjESaISt4pairIKjS4_EEELi10ES8_NS_8internal19SmallMapDefaultInitISD_EEEixERSA_(ptr noundef nonnull align 8 dereferenceable(168) %4, ptr noundef nonnull align 4 dereferenceable(4) %3)
  store ptr %1, ptr %7, align 8, !tbaa !228
  call void @llvm.lifetime.end.p0(i64 4, ptr nonnull %3) #25
  %8 = load i32, ptr %5, align 8, !tbaa !377
  %9 = getelementptr inbounds nuw i8, ptr %0, i64 936
  %10 = load i32, ptr %9, align 8, !tbaa !211
  %11 = xor i32 %10, %8
  %12 = and i32 %11, 1
  %.not = icmp eq i32 %12, 0
  br i1 %.not, label %17, label %13

13:                                               ; preds = %2
  %14 = getelementptr inbounds nuw i8, ptr %0, i64 1912
  %15 = load i64, ptr %14, align 8, !tbaa !321
  %16 = add i64 %15, 1
  store i64 %16, ptr %14, align 8, !tbaa !321
  br label %17

17:                                               ; preds = %13, %2
  %18 = getelementptr inbounds nuw i8, ptr %0, i64 56
  %19 = load ptr, ptr %18, align 8, !tbaa !18
  %20 = load i32, ptr %4, align 8, !tbaa !79
  %21 = zext nneg i32 %20 to i64
  %22 = getelementptr inbounds nuw i8, ptr %0, i64 800
  %23 = load i64, ptr %22, align 8
  %24 = icmp slt i32 %20, 0
  %.0.i = select i1 %24, i64 %23, i64 %21
  call void @_ZN3net14QuicConnection17SetNumOpenStreamsEm(ptr noundef nonnull align 8 dereferenceable(3372) %19, i64 noundef %.0.i)
  ret void
}